; Function Attrs: mustprogress nofree norecurse nosync nounwind memory(readwrite, inaccessiblemem: none) uwtable
define internal void @_ZL29TableSettingsHandler_ApplyAllP12ImGuiContextP20ImGuiSettingsHandler(ptr noundef readonly captures(none) %0, ptr readnone captures(none) %1) #8 {
  %3 = getelementptr inbounds nuw i8, ptr %0, i64 8584
  %4 = load i32, ptr %3, align 8, !tbaa !595
  %.not11 = icmp eq i32 %4, 0
  br i1 %.not11, label %._crit_edge, label %.lr.ph

.lr.ph:                                           ; preds = %2
  %5 = getelementptr inbounds nuw i8, ptr %0, i64 8592
  %6 = load ptr, ptr %5, align 8, !tbaa !596
  %7 = getelementptr inbounds nuw i8, ptr %0, i64 8576
  %8 = zext i32 %4 to i64
  br label %9

._crit_edge:                                      ; preds = %19, %2
  ret void

9:                                                ; preds = %.lr.ph, %19
  %indvars.iv = phi i64 [ 0, %.lr.ph ], [ %indvars.iv.next, %19 ]
  %10 = getelementptr inbounds nuw %struct.ImGuiStoragePair, ptr %6, i64 %indvars.iv, i32 1
  %11 = load i32, ptr %10, align 8, !tbaa !300
  %12 = icmp eq i32 %11, -1
  %13 = load ptr, ptr %7, align 8
  %.not910 = icmp eq ptr %13, null
  %.not9 = select i1 %12, i1 true, i1 %.not910
  br i1 %.not9, label %19, label %14

14:                                               ; preds = %9
  %15 = sext i32 %11 to i64
  %16 = getelementptr inbounds %struct.ImGuiTable, ptr %13, i64 %15
  %17 = getelementptr inbounds nuw i8, ptr %16, i64 573
  store i8 1, ptr %17, align 1, !tbaa !282
  %18 = getelementptr inbounds nuw i8, ptr %16, i64 100
  store i32 -1, ptr %18, align 4, !tbaa !287
  br label %19

19:                                               ; preds = %14, %9
  %indvars.iv.next = add nuw nsw i64 %indvars.iv, 1
  %.not = icmp eq i64 %indvars.iv.next, %8
  br i1 %.not, label %._crit_edge, label %9, !llvm.loop !598
}